target datalayout = "e-m:e-p270:32:32-p271:32:32-p272:64:64-i64:64-i128:128-f80:128-n8:16:32:64-S128"
target triple = "x86_64-unknown-linux-gnu"

%struct.TPMPassthruState = type { %struct.TPMBackend, ptr, ptr, i32, i8, i8, i32, i32, i64 }
%struct.TPMBackend = type { %struct.Object, ptr, i8, i8, ptr, ptr, %struct.anon }
%struct.Object = type { ptr, ptr, ptr, i32, ptr }
%struct.anon = type { ptr, ptr }
%struct.TPMPassthroughOptions = type { ptr, ptr }

@.str = private unnamed_addr constant [16 x i8] c"tpm-passthrough\00", align 1
@.str.1 = private unnamed_addr constant [12 x i8] c"tpm-backend\00", align 1
@.str.2 = private unnamed_addr constant [39 x i8] c"../qemu/backends/tpm/tpm_passthrough.c\00", align 1
@__func__.TPM_PASSTHROUGH = private unnamed_addr constant [16 x i8] c"TPM_PASSTHROUGH\00", align 1
@.str.6 = private unnamed_addr constant [107 x i8] c"/home/dtcxzyw/WorkSpace/Projects/compilers/llvm-opt-benchmark/bench/qemu/qemu/include/sysemu/tpm_backend.h\00", align 1
@__func__.TPM_BACKEND = private unnamed_addr constant [12 x i8] c"TPM_BACKEND\00", align 1
@.str.10 = private unnamed_addr constant [12 x i8] c"cancel-path\00", align 1
@.str.12 = private unnamed_addr constant [5 x i8] c"path\00", align 1
@.str.14 = private unnamed_addr constant [10 x i8] c"/dev/tpm0\00", align 1
@.str.15 = private unnamed_addr constant [40 x i8] c"Cannot access TPM device using '%s': %s\00", align 1
@.str.16 = private unnamed_addr constant [26 x i8] c"'%s' is not a TPM device.\00", align 1
@.str.17 = private unnamed_addr constant [52 x i8] c"tpm_passthrough: Could not open TPM cancel path: %s\00", align 1
@.str.18 = private unnamed_addr constant [40 x i8] c"tpm_passthrough: Bad TPM device path %s\00", align 1
@.str.19 = private unnamed_addr constant [32 x i8] c"/sys/class/tpm/%s/device/cancel\00", align 1
@.str.20 = private unnamed_addr constant [33 x i8] c"/sys/class/misc/%s/device/cancel\00", align 1
@.str.21 = private unnamed_addr constant [49 x i8] c"tpm_passthrough: Could not guess TPM cancel path\00", align 1

; Function Attrs: nounwind sspstrong uwtable
define internal i32 @tpm_passthrough_open_sysfs_cancel(ptr noundef %tpm_pt) #0 {
entry:
  %retval = alloca i32, align 4
  %tpm_pt.addr = alloca ptr, align 8
  %fd = alloca i32, align 4
  %dev = alloca ptr, align 8
  %path = alloca [4096 x i8], align 16
  store ptr %tpm_pt, ptr %tpm_pt.addr, align 8
  store i32 -1, ptr %fd, align 4
  %0 = load ptr, ptr %tpm_pt.addr, align 8
  %options = getelementptr inbounds %struct.TPMPassthruState, ptr %0, i32 0, i32 1
  %1 = load ptr, ptr %options, align 8
  %cancel_path = getelementptr inbounds %struct.TPMPassthroughOptions, ptr %1, i32 0, i32 1
  %2 = load ptr, ptr %cancel_path, align 8
  %tobool = icmp ne ptr %2, null
  br i1 %tobool, label %if.then, label %if.end6

if.then:                                          ; preds = %entry
  %3 = load ptr, ptr %tpm_pt.addr, align 8
  %options1 = getelementptr inbounds %struct.TPMPassthruState, ptr %3, i32 0, i32 1
  %4 = load ptr, ptr %options1, align 8
  %cancel_path2 = getelementptr inbounds %struct.TPMPassthroughOptions, ptr %4, i32 0, i32 1
  %5 = load ptr, ptr %cancel_path2, align 8
  %call = call i32 (ptr, i32, ...) @qemu_open_old(ptr noundef %5, i32 noundef 1)
  store i32 %call, ptr %fd, align 4
  %6 = load i32, ptr %fd, align 4
  %cmp = icmp slt i32 %6, 0
  br i1 %cmp, label %if.then3, label %if.end

if.then3:                                         ; preds = %if.then
  %call4 = call ptr @__errno_location() #9
  %7 = load i32, ptr %call4, align 4
  %call5 = call ptr @strerror(i32 noundef %7) #10
  call void (ptr, ...) @error_report(ptr noundef @.str.17, ptr noundef %call5)
  br label %if.end

if.end:                                           ; preds = %if.then3, %if.then
  %8 = load i32, ptr %fd, align 4
  store i32 %8, ptr %retval, align 4
  br label %return

if.end6:                                          ; preds = %entry
  %9 = load ptr, ptr %tpm_pt.addr, align 8
  %tpm_dev = getelementptr inbounds %struct.TPMPassthruState, ptr %9, i32 0, i32 2
  %10 = load ptr, ptr %tpm_dev, align 8
  %call7 = call ptr @strrchr(ptr noundef %10, i32 noundef 47) #11
  store ptr %call7, ptr %dev, align 8
  %11 = load ptr, ptr %dev, align 8
  %tobool8 = icmp ne ptr %11, null
  br i1 %tobool8, label %if.end11, label %if.then9

if.then9:                                         ; preds = %if.end6
  %12 = load ptr, ptr %tpm_pt.addr, align 8
  %tpm_dev10 = getelementptr inbounds %struct.TPMPassthruState, ptr %12, i32 0, i32 2
  %13 = load ptr, ptr %tpm_dev10, align 8
  call void (ptr, ...) @error_report(ptr noundef @.str.18, ptr noundef %13)
  store i32 -1, ptr %retval, align 4
  br label %return

if.end11:                                         ; preds = %if.end6
  %14 = load ptr, ptr %dev, align 8
  %incdec.ptr = getelementptr i8, ptr %14, i32 1
  store ptr %incdec.ptr, ptr %dev, align 8
  %arraydecay = getelementptr inbounds [4096 x i8], ptr %path, i64 0, i64 0
  %15 = load ptr, ptr %dev, align 8
  %call12 = call i32 (ptr, i64, ptr, ...) @snprintf(ptr noundef %arraydecay, i64 noundef 4096, ptr noundef @.str.19, ptr noundef %15) #10
  %conv = sext i32 %call12 to i64
  %cmp13 = icmp ult i64 %conv, 4096
  br i1 %cmp13, label %if.then15, label %if.end31

if.then15:                                        ; preds = %if.end11
  %arraydecay16 = getelementptr inbounds [4096 x i8], ptr %path, i64 0, i64 0
  %call17 = call i32 (ptr, i32, ...) @qemu_open_old(ptr noundef %arraydecay16, i32 noundef 1)
  store i32 %call17, ptr %fd, align 4
  %16 = load i32, ptr %fd, align 4
  %cmp18 = icmp slt i32 %16, 0
  br i1 %cmp18, label %if.then20, label %if.end30

if.then20:                                        ; preds = %if.then15
  %arraydecay21 = getelementptr inbounds [4096 x i8], ptr %path, i64 0, i64 0
  %17 = load ptr, ptr %dev, align 8
  %call22 = call i32 (ptr, i64, ptr, ...) @snprintf(ptr noundef %arraydecay21, i64 noundef 4096, ptr noundef @.str.20, ptr noundef %17) #10
  %conv23 = sext i32 %call22 to i64
  %cmp24 = icmp ult i64 %conv23, 4096
  br i1 %cmp24, label %if.then26, label %if.end29

if.then26:                                        ; preds = %if.then20
  %arraydecay27 = getelementptr inbounds [4096 x i8], ptr %path, i64 0, i64 0
  %call28 = call i32 (ptr, i32, ...) @qemu_open_old(ptr noundef %arraydecay27, i32 noundef 1)
  store i32 %call28, ptr %fd, align 4
  br label %if.end29

if.end29:                                         ; preds = %if.then26, %if.then20
  br label %if.end30

if.end30:                                         ; preds = %if.end29, %if.then15
  br label %if.end31

if.end31:                                         ; preds = %if.end30, %if.end11
  %18 = load i32, ptr %fd, align 4
  %cmp32 = icmp slt i32 %18, 0
  br i1 %cmp32, label %if.then34, label %if.else

if.then34:                                        ; preds = %if.end31
  call void (ptr, ...) @error_report(ptr noundef @.str.21)
  br label %if.end39

if.else:                                          ; preds = %if.end31
  %arraydecay35 = getelementptr inbounds [4096 x i8], ptr %path, i64 0, i64 0
  %call36 = call noalias ptr @g_strdup(ptr noundef %arraydecay35)
  %19 = load ptr, ptr %tpm_pt.addr, align 8
  %options37 = getelementptr inbounds %struct.TPMPassthruState, ptr %19, i32 0, i32 1
  %20 = load ptr, ptr %options37, align 8
  %cancel_path38 = getelementptr inbounds %struct.TPMPassthroughOptions, ptr %20, i32 0, i32 1
  store ptr %call36, ptr %cancel_path38, align 8
  br label %if.end39

if.end39:                                         ; preds = %if.else, %if.then34
  %21 = load i32, ptr %fd, align 4
  store i32 %21, ptr %retval, align 4
  br label %return

return:                                           ; preds = %if.end39, %if.then9, %if.end
  %22 = load i32, ptr %retval, align 4
  ret i32 %22
}

; Function Attrs: nounwind sspstrong uwtable
define internal ptr @TPM_BACKEND(ptr noundef %obj) #0 {
entry:
  %obj.addr = alloca ptr, align 8
  store ptr %obj, ptr %obj.addr, align 8
  %0 = load ptr, ptr %obj.addr, align 8
  %call = call ptr @object_dynamic_cast_assert(ptr noundef %0, ptr noundef @.str.1, ptr noundef @.str.6, i32 noundef 25, ptr noundef @__func__.TPM_BACKEND)
  ret ptr %call
}

; Function Attrs: nounwind sspstrong uwtable
define internal i32 @tpm_passthrough_handle_device_opts(ptr noundef %tpm_pt, ptr noundef %opts) #0 {
entry:
  %retval = alloca i32, align 4
  %tpm_pt.addr = alloca ptr, align 8
  %opts.addr = alloca ptr, align 8
  %value = alloca ptr, align 8
  store ptr %tpm_pt, ptr %tpm_pt.addr, align 8
  store ptr %opts, ptr %opts.addr, align 8
  %0 = load ptr, ptr %opts.addr, align 8
  %call = call ptr @qemu_opt_get(ptr noundef %0, ptr noundef @.str.10)
  store ptr %call, ptr %value, align 8
  %1 = load ptr, ptr %value, align 8
  %tobool = icmp ne ptr %1, null
  br i1 %tobool, label %if.then, label %if.end

if.then:                                          ; preds = %entry
  %2 = load ptr, ptr %value, align 8
  %call1 = call noalias ptr @g_strdup(ptr noundef %2)
  %3 = load ptr, ptr %tpm_pt.addr, align 8
  %options = getelementptr inbounds %struct.TPMPassthruState, ptr %3, i32 0, i32 1
  %4 = load ptr, ptr %options, align 8
  %cancel_path = getelementptr inbounds %struct.TPMPassthroughOptions, ptr %4, i32 0, i32 1
  store ptr %call1, ptr %cancel_path, align 8
  br label %if.end

if.end:                                           ; preds = %if.then, %entry
  %5 = load ptr, ptr %opts.addr, align 8
  %call2 = call ptr @qemu_opt_get(ptr noundef %5, ptr noundef @.str.12)
  store ptr %call2, ptr %value, align 8
  %6 = load ptr, ptr %value, align 8
  %tobool3 = icmp ne ptr %6, null
  br i1 %tobool3, label %if.then4, label %if.end7

if.then4:                                         ; preds = %if.end
  %7 = load ptr, ptr %value, align 8
  %call5 = call noalias ptr @g_strdup(ptr noundef %7)
  %8 = load ptr, ptr %tpm_pt.addr, align 8
  %options6 = getelementptr inbounds %struct.TPMPassthruState, ptr %8, i32 0, i32 1
  %9 = load ptr, ptr %options6, align 8
  %path = getelementptr inbounds %struct.TPMPassthroughOptions, ptr %9, i32 0, i32 0
  store ptr %call5, ptr %path, align 8
  br label %if.end7

if.end7:                                          ; preds = %if.then4, %if.end
  %10 = load ptr, ptr %value, align 8
  %tobool8 = icmp ne ptr %10, null
  br i1 %tobool8, label %cond.true, label %cond.false

cond.true:                                        ; preds = %if.end7
  %11 = load ptr, ptr %value, align 8
  br label %cond.end

cond.false:                                       ; preds = %if.end7
  br label %cond.end

cond.end:                                         ; preds = %cond.false, %cond.true
  %cond = phi ptr [ %11, %cond.true ], [ @.str.14, %cond.false ]
  %12 = load ptr, ptr %tpm_pt.addr, align 8
  %tpm_dev = getelementptr inbounds %struct.TPMPassthruState, ptr %12, i32 0, i32 2
  store ptr %cond, ptr %tpm_dev, align 8
  %13 = load ptr, ptr %tpm_pt.addr, align 8
  %tpm_dev9 = getelementptr inbounds %struct.TPMPassthruState, ptr %13, i32 0, i32 2
  %14 = load ptr, ptr %tpm_dev9, align 8
  %call10 = call i32 (ptr, i32, ...) @qemu_open_old(ptr noundef %14, i32 noundef 2)
  %15 = load ptr, ptr %tpm_pt.addr, align 8
  %tpm_fd = getelementptr inbounds %struct.TPMPassthruState, ptr %15, i32 0, i32 3
  store i32 %call10, ptr %tpm_fd, align 8
  %16 = load ptr, ptr %tpm_pt.addr, align 8
  %tpm_fd11 = getelementptr inbounds %struct.TPMPassthruState, ptr %16, i32 0, i32 3
  %17 = load i32, ptr %tpm_fd11, align 8
  %cmp = icmp slt i32 %17, 0
  br i1 %cmp, label %if.then12, label %if.end16

if.then12:                                        ; preds = %cond.end
  %18 = load ptr, ptr %tpm_pt.addr, align 8
  %tpm_dev13 = getelementptr inbounds %struct.TPMPassthruState, ptr %18, i32 0, i32 2
  %19 = load ptr, ptr %tpm_dev13, align 8
  %call14 = call ptr @__errno_location() #9
  %20 = load i32, ptr %call14, align 4
  %call15 = call ptr @strerror(i32 noundef %20) #10
  call void (ptr, ...) @error_report(ptr noundef @.str.15, ptr noundef %19, ptr noundef %call15)
  store i32 -1, ptr %retval, align 4
  br label %return

if.end16:                                         ; preds = %cond.end
  %21 = load ptr, ptr %tpm_pt.addr, align 8
  %tpm_fd17 = getelementptr inbounds %struct.TPMPassthruState, ptr %21, i32 0, i32 3
  %22 = load i32, ptr %tpm_fd17, align 8
  %23 = load ptr, ptr %tpm_pt.addr, align 8
  %tpm_version = getelementptr inbounds %struct.TPMPassthruState, ptr %23, i32 0, i32 7
  %call18 = call i32 @tpm_util_test_tpmdev(i32 noundef %22, ptr noundef %tpm_version)
  %tobool19 = icmp ne i32 %call18, 0
  br i1 %tobool19, label %if.then20, label %if.end22

if.then20:                                        ; preds = %if.end16
  %24 = load ptr, ptr %tpm_pt.addr, align 8
  %tpm_dev21 = getelementptr inbounds %struct.TPMPassthruState, ptr %24, i32 0, i32 2
  %25 = load ptr, ptr %tpm_dev21, align 8
  call void (ptr, ...) @error_report(ptr noundef @.str.16, ptr noundef %25)
  store i32 -1, ptr %retval, align 4
  br label %return

if.end22:                                         ; preds = %if.end16
  %26 = load ptr, ptr %tpm_pt.addr, align 8
  %call23 = call i32 @tpm_passthrough_open_sysfs_cancel(ptr noundef %26)
  %27 = load ptr, ptr %tpm_pt.addr, align 8
  %cancel_fd = getelementptr inbounds %struct.TPMPassthruState, ptr %27, i32 0, i32 6
  store i32 %call23, ptr %cancel_fd, align 8
  %28 = load ptr, ptr %tpm_pt.addr, align 8
  %cancel_fd24 = getelementptr inbounds %struct.TPMPassthruState, ptr %28, i32 0, i32 6
  %29 = load i32, ptr %cancel_fd24, align 8
  %cmp25 = icmp slt i32 %29, 0
  br i1 %cmp25, label %if.then26, label %if.end27

if.then26:                                        ; preds = %if.end22
  store i32 -1, ptr %retval, align 4
  br label %return

if.end27:                                         ; preds = %if.end22
  store i32 0, ptr %retval, align 4
  br label %return

return:                                           ; preds = %if.end27, %if.then26, %if.then20, %if.then12
  %30 = load i32, ptr %retval, align 4
  ret i32 %30
}

; Function Attrs: nounwind sspstrong uwtable
define internal ptr @TPM_PASSTHROUGH(ptr noundef %obj) #0 {
entry:
  %obj.addr = alloca ptr, align 8
  store ptr %obj, ptr %obj.addr, align 8
  %0 = load ptr, ptr %obj.addr, align 8
  %call = call ptr @object_dynamic_cast_assert(ptr noundef %0, ptr noundef @.str, ptr noundef @.str.2, i32 noundef 38, ptr noundef @__func__.TPM_PASSTHROUGH)
  ret ptr %call
}

; Function Attrs: nounwind sspstrong uwtable
define internal ptr @tpm_passthrough_create(ptr noundef %opts) #0 {
entry:
  %retval = alloca ptr, align 8
  %opts.addr = alloca ptr, align 8
  %obj = alloca ptr, align 8
  store ptr %opts, ptr %opts.addr, align 8
  %call = call ptr @object_new(ptr noundef @.str)
  store ptr %call, ptr %obj, align 8
  %0 = load ptr, ptr %obj, align 8
  %call1 = call ptr @TPM_PASSTHROUGH(ptr noundef %0)
  %1 = load ptr, ptr %opts.addr, align 8
  %call2 = call i32 @tpm_passthrough_handle_device_opts(ptr noundef %call1, ptr noundef %1)
  %tobool = icmp ne i32 %call2, 0
  br i1 %tobool, label %if.then, label %if.end

if.then:                                          ; preds = %entry
  %2 = load ptr, ptr %obj, align 8
  call void @object_unref(ptr noundef %2)
  store ptr null, ptr %retval, align 8
  br label %return

if.end:                                           ; preds = %entry
  %3 = load ptr, ptr %obj, align 8
  %call3 = call ptr @TPM_BACKEND(ptr noundef %3)
  store ptr %call3, ptr %retval, align 8
  br label %return

return:                                           ; preds = %if.end, %if.then
  %4 = load ptr, ptr %retval, align 8
  ret ptr %4
}