; Function Attrs: nounwind sspstrong uwtable
define internal ptr @tpm_passthrough_create(ptr noundef %opts) #0 {
entry:
  %path.i.i = alloca [4096 x i8], align 16
  %call = tail call ptr @object_new(ptr noundef nonnull @.str) #11
  %call.i = tail call ptr @object_dynamic_cast_assert(ptr noundef %call, ptr noundef nonnull @.str, ptr noundef nonnull @.str.2, i32 noundef 38, ptr noundef nonnull @__func__.TPM_PASSTHROUGH) #11
  %call.i3 = tail call ptr @qemu_opt_get(ptr noundef %opts, ptr noundef nonnull @.str.10) #11
  %tobool.not.i = icmp eq ptr %call.i3, null
  br i1 %tobool.not.i, label %if.end.i, label %if.then.i

if.then.i:                                        ; preds = %entry
  %call1.i = tail call noalias ptr @g_strdup(ptr noundef nonnull %call.i3) #11
  %options.i = getelementptr inbounds nuw i8, ptr %call.i, i64 88
  %0 = load ptr, ptr %options.i, align 8
  %cancel_path.i = getelementptr inbounds nuw i8, ptr %0, i64 8
  store ptr %call1.i, ptr %cancel_path.i, align 8
  br label %if.end.i

if.end.i:                                         ; preds = %if.then.i, %entry
  %call2.i = tail call ptr @qemu_opt_get(ptr noundef %opts, ptr noundef nonnull @.str.12) #11
  %tobool3.not.i = icmp eq ptr %call2.i, null
  br i1 %tobool3.not.i, label %if.end7.i, label %if.then4.i

if.then4.i:                                       ; preds = %if.end.i
  %call5.i = tail call noalias ptr @g_strdup(ptr noundef nonnull %call2.i) #11
  %options6.i = getelementptr inbounds nuw i8, ptr %call.i, i64 88
  %1 = load ptr, ptr %options6.i, align 8
  store ptr %call5.i, ptr %1, align 8
  br label %if.end7.i

if.end7.i:                                        ; preds = %if.then4.i, %if.end.i
  %cond.i = phi ptr [ %call2.i, %if.then4.i ], [ @.str.14, %if.end.i ]
  %tpm_dev.i = getelementptr inbounds nuw i8, ptr %call.i, i64 96
  store ptr %cond.i, ptr %tpm_dev.i, align 8
  %call10.i = tail call i32 (ptr, i32, ...) @qemu_open_old(ptr noundef nonnull %cond.i, i32 noundef 2) #11
  %tpm_fd.i = getelementptr inbounds nuw i8, ptr %call.i, i64 104
  store i32 %call10.i, ptr %tpm_fd.i, align 8
  %cmp.i = icmp slt i32 %call10.i, 0
  br i1 %cmp.i, label %if.then12.i, label %if.end16.i

if.then12.i:                                      ; preds = %if.end7.i
  %2 = load ptr, ptr %tpm_dev.i, align 8
  %call14.i = tail call ptr @__errno_location() #13
  %3 = load i32, ptr %call14.i, align 4
  %call15.i = tail call ptr @strerror(i32 noundef %3) #11
  tail call void (ptr, ...) @error_report(ptr noundef nonnull @.str.15, ptr noundef %2, ptr noundef %call15.i) #11
  br label %if.then

if.end16.i:                                       ; preds = %if.end7.i
  %tpm_version.i = getelementptr inbounds nuw i8, ptr %call.i, i64 116
  %call18.i = tail call i32 @tpm_util_test_tpmdev(i32 noundef %call10.i, ptr noundef nonnull %tpm_version.i) #11
  %tobool19.not.i = icmp eq i32 %call18.i, 0
  br i1 %tobool19.not.i, label %if.end22.i, label %if.then20.i

if.then20.i:                                      ; preds = %if.end16.i
  %4 = load ptr, ptr %tpm_dev.i, align 8
  tail call void (ptr, ...) @error_report(ptr noundef nonnull @.str.16, ptr noundef %4) #11
  br label %if.then

if.end22.i:                                       ; preds = %if.end16.i
  call void @llvm.lifetime.start.p0(i64 4096, ptr nonnull %path.i.i)
  %options.i.i = getelementptr inbounds nuw i8, ptr %call.i, i64 88
  %5 = load ptr, ptr %options.i.i, align 8
  %cancel_path.i.i = getelementptr inbounds nuw i8, ptr %5, i64 8
  %6 = load ptr, ptr %cancel_path.i.i, align 8
  %tobool.not.i.i = icmp eq ptr %6, null
  br i1 %tobool.not.i.i, label %if.end6.i.i, label %if.then.i.i

if.then.i.i:                                      ; preds = %if.end22.i
  %call.i.i = tail call i32 (ptr, i32, ...) @qemu_open_old(ptr noundef nonnull %6, i32 noundef 1) #11
  %cmp.i.i = icmp slt i32 %call.i.i, 0
  br i1 %cmp.i.i, label %if.then3.i.i, label %if.end

if.then3.i.i:                                     ; preds = %if.then.i.i
  %call4.i.i = tail call ptr @__errno_location() #13
  %7 = load i32, ptr %call4.i.i, align 4
  %call5.i.i = tail call ptr @strerror(i32 noundef %7) #11
  tail call void (ptr, ...) @error_report(ptr noundef nonnull @.str.17, ptr noundef %call5.i.i) #11
  br label %10

if.end6.i.i:                                      ; preds = %if.end22.i
  %8 = load ptr, ptr %tpm_dev.i, align 8
  %call7.i.i = tail call ptr @strrchr(ptr noundef nonnull dereferenceable(1) %8, i32 noundef 47) #14
  %tobool8.not.i.i = icmp eq ptr %call7.i.i, null
  br i1 %tobool8.not.i.i, label %if.then9.i.i, label %if.end11.i.i

if.then9.i.i:                                     ; preds = %if.end6.i.i
  tail call void (ptr, ...) @error_report(ptr noundef nonnull @.str.18, ptr noundef nonnull %8) #11
  br label %10

if.end11.i.i:                                     ; preds = %if.end6.i.i
  %incdec.ptr.i.i = getelementptr i8, ptr %call7.i.i, i64 1
  %call12.i.i = call i32 (ptr, i64, ptr, ...) @snprintf(ptr noundef nonnull dereferenceable(1) %path.i.i, i64 noundef 4096, ptr noundef nonnull @.str.19, ptr noundef %incdec.ptr.i.i) #11
  %cmp13.i.i = icmp ult i32 %call12.i.i, 4096
  br i1 %cmp13.i.i, label %if.then15.i.i, label %if.then34.i.i

if.then15.i.i:                                    ; preds = %if.end11.i.i
  %call17.i.i = call i32 (ptr, i32, ...) @qemu_open_old(ptr noundef nonnull %path.i.i, i32 noundef 1) #11
  %cmp18.i.i = icmp slt i32 %call17.i.i, 0
  br i1 %cmp18.i.i, label %if.then20.i.i, label %if.else.i.i

if.then20.i.i:                                    ; preds = %if.then15.i.i
  %call22.i.i = call i32 (ptr, i64, ptr, ...) @snprintf(ptr noundef nonnull dereferenceable(1) %path.i.i, i64 noundef 4096, ptr noundef nonnull @.str.20, ptr noundef %incdec.ptr.i.i) #11
  %cmp24.i.i = icmp ult i32 %call22.i.i, 4096
  br i1 %cmp24.i.i, label %if.end31.i.i, label %if.then34.i.i

if.end31.i.i:                                     ; preds = %if.then20.i.i
  %call28.i.i = call i32 (ptr, i32, ...) @qemu_open_old(ptr noundef nonnull %path.i.i, i32 noundef 1) #11
  %cmp32.i.i = icmp slt i32 %call28.i.i, 0
  br i1 %cmp32.i.i, label %if.then34.i.i, label %if.else.i.i

if.then34.i.i:                                    ; preds = %if.end31.i.i, %if.then20.i.i, %if.end11.i.i
  %fd.014.i.i = phi i32 [ %call28.i.i, %if.end31.i.i ], [ -1, %if.end11.i.i ], [ %call17.i.i, %if.then20.i.i ]
  call void (ptr, ...) @error_report(ptr noundef nonnull @.str.21) #11
  br label %10

if.else.i.i:                                      ; preds = %if.end31.i.i, %if.then15.i.i
  %fd.018.i.i = phi i32 [ %call28.i.i, %if.end31.i.i ], [ %call17.i.i, %if.then15.i.i ]
  %call36.i.i = call noalias ptr @g_strdup(ptr noundef nonnull %path.i.i) #11
  %9 = load ptr, ptr %options.i.i, align 8
  %cancel_path38.i.i = getelementptr inbounds nuw i8, ptr %9, i64 8
  store ptr %call36.i.i, ptr %cancel_path38.i.i, align 8
  br label %if.end

10:                                               ; preds = %if.then34.i.i, %if.then9.i.i, %if.then3.i.i
  %retval.0.i.ph.i = phi i32 [ %fd.014.i.i, %if.then34.i.i ], [ %call.i.i, %if.then3.i.i ], [ -1, %if.then9.i.i ]
  call void @llvm.lifetime.end.p0(i64 4096, ptr nonnull %path.i.i)
  %cancel_fd20.i = getelementptr inbounds nuw i8, ptr %call.i, i64 112
  store i32 %retval.0.i.ph.i, ptr %cancel_fd20.i, align 8
  br label %if.then

if.then:                                          ; preds = %if.then12.i, %if.then20.i, %10
  call void @object_unref(ptr noundef %call) #11
  br label %return

if.end:                                           ; preds = %if.else.i.i, %if.then.i.i
  %retval.0.i.i = phi i32 [ %call.i.i, %if.then.i.i ], [ %fd.018.i.i, %if.else.i.i ]
  call void @llvm.lifetime.end.p0(i64 4096, ptr nonnull %path.i.i)
  %cancel_fd.i = getelementptr inbounds nuw i8, ptr %call.i, i64 112
  store i32 %retval.0.i.i, ptr %cancel_fd.i, align 8
  %call.i4 = call ptr @object_dynamic_cast_assert(ptr noundef %call, ptr noundef nonnull @.str.1, ptr noundef nonnull @.str.6, i32 noundef 25, ptr noundef nonnull @__func__.TPM_BACKEND) #11
  br label %return

return:                                           ; preds = %if.end, %if.then
  %retval.0 = phi ptr [ null, %if.then ], [ %call.i4, %if.end ]
  ret ptr %retval.0
}